target datalayout = "e-m:e-p270:32:32-p271:32:32-p272:64:64-i64:64-i128:128-f80:128-n8:16:32:64-S128"
target triple = "x86_64-pc-linux-gnu"

%"class.net::SettingsFlagsAndId" = type { i8, i32 }

@_ZN3net18SettingsFlagsAndIdC1Ehj = unnamed_addr alias void (ptr, i8, i32), ptr @_ZN3net18SettingsFlagsAndIdC2Ehj

; Function Attrs: inlinehint mustprogress nounwind uwtable
define linkonce_odr noundef i32 @_ZN4base8ByteSwapEj(i32 noundef %0) #6 comdat {
  %2 = alloca i32, align 4
  store i32 %0, ptr %2, align 4, !tbaa !7
  %3 = load i32, ptr %2, align 4, !tbaa !7
  %4 = call i32 @llvm.bswap.i32(i32 %3)
  ret i32 %4
}

; Function Attrs: inlinehint mustprogress uwtable
define linkonce_odr noundef i32 @_ZN4base11NetToHost32Ej(i32 noundef %0) #1 comdat {
  %2 = alloca i32, align 4
  store i32 %0, ptr %2, align 4, !tbaa !7
  %3 = load i32, ptr %2, align 4, !tbaa !7
  %4 = call noundef i32 @_ZN4base8ByteSwapEj(i32 noundef %3)
  ret i32 %4
}

; Function Attrs: mustprogress uwtable
define i64 @_ZN3net18SettingsFlagsAndId14FromWireFormatENS_16SpdyMajorVersionEj(i32 noundef %0, i32 noundef %1) #0 align 2 {
  %3 = alloca %"class.net::SettingsFlagsAndId", align 4
  %4 = alloca i32, align 4
  %5 = alloca i32, align 4
  store i32 %0, ptr %4, align 4, !tbaa !3
  store i32 %1, ptr %5, align 4, !tbaa !7
  %6 = load i32, ptr %5, align 4, !tbaa !7
  %7 = call noundef i32 @_ZN4base11NetToHost32Ej(i32 noundef %6)
  %8 = lshr i32 %7, 24
  %9 = trunc i32 %8 to i8
  %10 = load i32, ptr %5, align 4, !tbaa !7
  %11 = call noundef i32 @_ZN4base11NetToHost32Ej(i32 noundef %10)
  %12 = and i32 %11, 16777215
  call void @_ZN3net18SettingsFlagsAndIdC1Ehj(ptr noundef nonnull align 4 dereferenceable(8) %3, i8 noundef zeroext %9, i32 noundef %12)
  %13 = load i64, ptr %3, align 4
  ret i64 %13
}