; Function Attrs: mustprogress uwtable
define i64 @_ZN3net18SettingsFlagsAndId14FromWireFormatENS_16SpdyMajorVersionEj(i32 noundef %0, i32 noundef %1) local_unnamed_addr #0 align 2 {
  %3 = alloca %"class.net::SettingsFlagsAndId", align 8
  %4 = tail call noundef i32 @llvm.bswap.i32(i32 %1)
  %5 = lshr i32 %4, 24
  %6 = trunc nuw i32 %5 to i8
  %7 = and i32 %4, 16777215
  call void @_ZN3net18SettingsFlagsAndIdC1Ehj(ptr noundef nonnull align 4 dereferenceable(8) %3, i8 noundef zeroext %6, i32 noundef %7)
  %8 = load i64, ptr %3, align 8
  ret i64 %8
}